; Function Attrs: nounwind uwtable
define dso_local ptr @acct_storage_p_get_tres(ptr noundef %0, i32 noundef %1, ptr noundef %2) local_unnamed_addr #0 {
  %4 = alloca %struct.persist_msg_t, align 8
  %5 = alloca %struct.persist_msg_t, align 8
  %6 = alloca %struct.dbd_cond_msg_t, align 8
  call void @llvm.lifetime.start.p0(i64 24, ptr nonnull %4) #11
  %7 = getelementptr inbounds nuw i8, ptr %4, i64 16
  store i64 0, ptr %7, align 8
  call void @llvm.lifetime.start.p0(i64 24, ptr nonnull %5) #11
  call void @llvm.memset.p0.i64(ptr noundef nonnull align 8 dereferenceable(24) %5, i8 0, i64 24, i1 false)
  call void @llvm.lifetime.start.p0(i64 8, ptr nonnull %6) #11
  store ptr %2, ptr %6, align 8
  %8 = getelementptr inbounds nuw i8, ptr %4, i64 16
  store i16 1486, ptr %8, align 8
  store ptr %0, ptr %4, align 8
  %9 = getelementptr inbounds nuw i8, ptr %4, i64 8
  store ptr %6, ptr %9, align 8
  %10 = call i32 @dbd_conn_send_recv(i16 noundef zeroext 11008, ptr noundef nonnull %4, ptr noundef nonnull %5) #11
  %.not = icmp eq i32 %10, 0
  br i1 %.not, label %13, label %11

11:                                               ; preds = %3
  %12 = call i32 (ptr, ...) @slurm_error(ptr noundef nonnull @.str.46) #11
  br label %41

13:                                               ; preds = %3
  %14 = getelementptr inbounds nuw i8, ptr %5, i64 16
  %15 = load i16, ptr %14, align 8
  switch i16 %15, label %34 [
    i16 1433, label %16
    i16 1487, label %37
  ]

16:                                               ; preds = %13
  %17 = getelementptr inbounds nuw i8, ptr %5, i64 8
  %18 = load ptr, ptr %17, align 8
  %19 = getelementptr inbounds nuw i8, ptr %18, i64 12
  %20 = load i32, ptr %19, align 4
  %21 = icmp eq i32 %20, 0
  br i1 %21, label %22, label %29

22:                                               ; preds = %16
  %23 = call i32 @slurm_get_log_level() #11
  %24 = icmp sgt i32 %23, 2
  br i1 %24, label %25, label %27

25:                                               ; preds = %22
  %26 = load ptr, ptr %18, align 8
  call void (i32, ptr, ...) @slurm_log_var(i32 noundef 3, ptr noundef nonnull @.str.24, ptr noundef nonnull @plugin_type, ptr noundef nonnull @__func__.acct_storage_p_get_tres, ptr noundef %26) #11
  br label %27

27:                                               ; preds = %25, %22
  %28 = call ptr @slurm_list_create(ptr noundef null) #11
  br label %33

29:                                               ; preds = %16
  %30 = tail call ptr @__errno_location() #12
  store i32 %20, ptr %30, align 4
  %31 = load ptr, ptr %18, align 8
  %32 = call i32 (ptr, ...) @slurm_error(ptr noundef nonnull @.str.7, ptr noundef %31) #11
  br label %33

33:                                               ; preds = %29, %27
  %.1 = phi ptr [ %28, %27 ], [ null, %29 ]
  call void @slurm_persist_free_rc_msg(ptr noundef nonnull %18) #11
  br label %41

34:                                               ; preds = %13
  %35 = zext i16 %15 to i32
  %36 = call i32 (ptr, ...) @slurm_error(ptr noundef nonnull @.str.47, i32 noundef %35) #11
  br label %41

37:                                               ; preds = %13
  %38 = getelementptr inbounds nuw i8, ptr %5, i64 8
  %39 = load ptr, ptr %38, align 8
  %40 = load ptr, ptr %39, align 8
  store ptr null, ptr %39, align 8
  call void @slurm_slurmdbd_free_list_msg(ptr noundef nonnull %39) #11
  br label %41

41:                                               ; preds = %33, %37, %34, %11
  %.0 = phi ptr [ null, %11 ], [ %.1, %33 ], [ null, %34 ], [ %40, %37 ]
  call void @llvm.lifetime.end.p0(i64 8, ptr nonnull %6) #11
  call void @llvm.lifetime.end.p0(i64 24, ptr nonnull %5) #11
  call void @llvm.lifetime.end.p0(i64 24, ptr nonnull %4) #11
  ret ptr %.0
}